; Function Attrs: mustprogress uwtable
define internal void @_ZN3ue212_GLOBAL__N_119FindSequenceVisitor3preERKNS_17ComponentSequenceE(ptr noundef nonnull readonly align 8 captures(none) dereferenceable(44) %0, ptr noundef nonnull align 8 dereferenceable(88) %1) unnamed_addr #3 align 2 personality ptr @__gxx_personality_v0 {
  %3 = getelementptr inbounds nuw i8, ptr %0, i64 8
  %4 = getelementptr inbounds nuw i8, ptr %0, i64 16
  %5 = load i64, ptr %4, align 8
  %6 = icmp eq i64 %5, 0
  br i1 %6, label %17, label %7

7:                                                ; preds = %2
  %8 = getelementptr inbounds nuw i8, ptr %1, i64 64
  %9 = load i64, ptr %8, align 8
  %10 = icmp eq i64 %9, %5
  br i1 %10, label %_ZSteqIcEN9__gnu_cxx11__enable_ifIXsr9__is_charIT_EE7__valueEbE6__typeERKNSt7__cxx1112basic_stringIS2_St11char_traitsIS2_ESaIS2_EEESC_.exit, label %_ZSteqIcEN9__gnu_cxx11__enable_ifIXsr9__is_charIT_EE7__valueEbE6__typeERKNSt7__cxx1112basic_stringIS2_St11char_traitsIS2_ESaIS2_EEESC_.exit.thread

_ZSteqIcEN9__gnu_cxx11__enable_ifIXsr9__is_charIT_EE7__valueEbE6__typeERKNSt7__cxx1112basic_stringIS2_St11char_traitsIS2_ESaIS2_EEESC_.exit: ; preds = %7
  %11 = getelementptr inbounds nuw i8, ptr %1, i64 56
  %12 = load ptr, ptr %3, align 8
  %13 = load ptr, ptr %11, align 8
  %bcmp.i = tail call i32 @bcmp(ptr %13, ptr %12, i64 %5)
  %14 = icmp eq i32 %bcmp.i, 0
  br i1 %14, label %15, label %_ZSteqIcEN9__gnu_cxx11__enable_ifIXsr9__is_charIT_EE7__valueEbE6__typeERKNSt7__cxx1112basic_stringIS2_St11char_traitsIS2_ESaIS2_EEESC_.exit.thread

15:                                               ; preds = %_ZSteqIcEN9__gnu_cxx11__enable_ifIXsr9__is_charIT_EE7__valueEbE6__typeERKNSt7__cxx1112basic_stringIS2_St11char_traitsIS2_ESaIS2_EEESC_.exit
  %16 = tail call ptr @__cxa_allocate_exception(i64 8) #20
  store ptr %1, ptr %16, align 16
  tail call void @__cxa_throw(ptr nonnull %16, ptr nonnull @_ZTIPKN3ue217ComponentSequenceE, ptr null) #24
  unreachable

17:                                               ; preds = %2
  %18 = getelementptr inbounds nuw i8, ptr %1, i64 48
  %19 = load i32, ptr %18, align 8
  %20 = getelementptr inbounds nuw i8, ptr %0, i64 40
  %21 = load i32, ptr %20, align 8
  %22 = icmp eq i32 %19, %21
  br i1 %22, label %23, label %_ZSteqIcEN9__gnu_cxx11__enable_ifIXsr9__is_charIT_EE7__valueEbE6__typeERKNSt7__cxx1112basic_stringIS2_St11char_traitsIS2_ESaIS2_EEESC_.exit.thread

23:                                               ; preds = %17
  %24 = tail call ptr @__cxa_allocate_exception(i64 8) #20
  store ptr %1, ptr %24, align 16
  tail call void @__cxa_throw(ptr nonnull %24, ptr nonnull @_ZTIPKN3ue217ComponentSequenceE, ptr null) #24
  unreachable

_ZSteqIcEN9__gnu_cxx11__enable_ifIXsr9__is_charIT_EE7__valueEbE6__typeERKNSt7__cxx1112basic_stringIS2_St11char_traitsIS2_ESaIS2_EEESC_.exit.thread: ; preds = %7, %17, %_ZSteqIcEN9__gnu_cxx11__enable_ifIXsr9__is_charIT_EE7__valueEbE6__typeERKNSt7__cxx1112basic_stringIS2_St11char_traitsIS2_ESaIS2_EEESC_.exit
  ret void
}